; Function Attrs: nounwind uwtable
define dso_local ptr @ExecGetRootToChildMap(ptr noundef captures(none) %0, ptr noundef readonly captures(none) %1) local_unnamed_addr #0 {
  %3 = getelementptr inbounds nuw i8, ptr %0, i64 352
  %4 = load i8, ptr %3, align 8, !range !8, !noundef !9
  %5 = trunc nuw i8 %4 to i1
  br i1 %5, label %31, label %6

6:                                                ; preds = %2
  %7 = getelementptr inbounds nuw i8, ptr %0, i64 360
  %8 = load ptr, ptr %7, align 8
  %9 = getelementptr inbounds nuw i8, ptr %8, i64 8
  %10 = load ptr, ptr %9, align 8
  %11 = getelementptr inbounds nuw i8, ptr %10, i64 64
  %12 = load ptr, ptr %11, align 8
  %13 = getelementptr inbounds nuw i8, ptr %0, i64 8
  %14 = load ptr, ptr %13, align 8
  %15 = getelementptr inbounds nuw i8, ptr %14, i64 64
  %16 = load ptr, ptr %15, align 8
  %17 = getelementptr inbounds nuw i8, ptr %1, i64 192
  %18 = load ptr, ptr %17, align 8
  %19 = load ptr, ptr @CurrentMemoryContext, align 8
  store ptr %18, ptr @CurrentMemoryContext, align 8
  %20 = getelementptr inbounds nuw i8, ptr %14, i64 56
  %21 = load ptr, ptr %20, align 8
  %22 = getelementptr inbounds nuw i8, ptr %21, i64 127
  %23 = load i8, ptr %22, align 1, !range !8, !noundef !9
  %24 = trunc nuw i8 %23 to i1
  %25 = xor i1 %24, true
  %26 = tail call ptr @build_attrmap_by_name_if_req(ptr noundef %12, ptr noundef %16, i1 noundef zeroext %25) #12
  %.not = icmp eq ptr %26, null
  br i1 %.not, label %30, label %27

27:                                               ; preds = %6
  %28 = tail call ptr @convert_tuples_by_name_attrmap(ptr noundef %12, ptr noundef %16, ptr noundef nonnull %26) #12
  %29 = getelementptr inbounds nuw i8, ptr %0, i64 344
  store ptr %28, ptr %29, align 8
  br label %30

30:                                               ; preds = %27, %6
  store ptr %19, ptr @CurrentMemoryContext, align 8
  store i8 1, ptr %3, align 8
  br label %31

31:                                               ; preds = %30, %2
  %32 = getelementptr inbounds nuw i8, ptr %0, i64 344
  %33 = load ptr, ptr %32, align 8
  ret ptr %33
}